target datalayout = "e-m:e-p270:32:32-p271:32:32-p272:64:64-i64:64-i128:128-f80:128-n8:16:32:64-S128"
target triple = "x86_64-pc-linux-gnu"

%"class.std::map" = type { %"class.std::_Rb_tree" }
%"class.std::_Rb_tree" = type { %"struct.std::_Rb_tree<eStatementType, std::pair<const eStatementType, bool>, std::_Select1st<std::pair<const eStatementType, bool>>, std::less<eStatementType>>::_Rb_tree_impl" }
%"struct.std::_Rb_tree<eStatementType, std::pair<const eStatementType, bool>, std::_Select1st<std::pair<const eStatementType, bool>>, std::less<eStatementType>>::_Rb_tree_impl" = type { [8 x i8], %"struct.std::_Rb_tree_header" }
%"struct.std::_Rb_tree_header" = type { %"struct.std::_Rb_tree_node_base", i64 }
%"struct.std::_Rb_tree_node_base" = type { i32, ptr, ptr, ptr }

@_ZN15PartialExpander8expands_E = dso_local global %"class.std::map" zeroinitializer, align 8

; Function Attrs: mustprogress uwtable
define dso_local void @_ZN15PartialExpander15set_stmt_expandE14eStatementTypeb(i32 noundef %0, i1 noundef zeroext %1) #5 align 2 {
  %3 = alloca i32, align 4
  %4 = alloca i8, align 1
  store i32 %0, ptr %3, align 4, !tbaa !33
  %5 = zext i1 %1 to i8
  store i8 %5, ptr %4, align 1, !tbaa !31
  %6 = load i8, ptr %4, align 1, !tbaa !31, !range !17, !noundef !18
  %7 = trunc i8 %6 to i1
  %8 = call noundef nonnull align 1 dereferenceable(1) ptr @_ZNSt3mapI14eStatementTypebSt4lessIS0_ESaISt4pairIKS0_bEEEixERS4_(ptr noundef nonnull align 8 dereferenceable(48) @_ZN15PartialExpander8expands_E, ptr noundef nonnull align 4 dereferenceable(4) %3)
  %9 = zext i1 %7 to i8
  store i8 %9, ptr %8, align 1, !tbaa !31
  ret void
}

; Function Attrs: mustprogress uwtable
define dso_local noundef zeroext i1 @_ZN15PartialExpander12expand_checkE14eStatementType(i32 noundef %0) #5 align 2 {
  %2 = alloca i1, align 1
  %3 = alloca i32, align 4
  %4 = alloca i32, align 4
  %5 = alloca i8, align 1
  %6 = alloca i32, align 4
  store i32 %0, ptr %3, align 4, !tbaa !33
  call void @llvm.lifetime.start.p0(i64 4, ptr %4) #3
  store i32 10, ptr %4, align 4, !tbaa !33
  %7 = call noundef nonnull align 1 dereferenceable(1) ptr @_ZNSt3mapI14eStatementTypebSt4lessIS0_ESaISt4pairIKS0_bEEEixEOS0_(ptr noundef nonnull align 8 dereferenceable(48) @_ZN15PartialExpander8expands_E, ptr noundef nonnull align 4 dereferenceable(4) %4)
  %8 = load i8, ptr %7, align 1, !tbaa !31, !range !17, !noundef !18
  %9 = trunc i8 %8 to i1
  %10 = xor i1 %9, true
  call void @llvm.lifetime.end.p0(i64 4, ptr %4) #3
  br i1 %10, label %11, label %12

11:                                               ; preds = %1
  store i1 true, ptr %2, align 1
  br label %36

12:                                               ; preds = %1
  call void @llvm.lifetime.start.p0(i64 1, ptr %5) #3
  store i8 0, ptr %5, align 1, !tbaa !31
  %13 = call noundef nonnull align 1 dereferenceable(1) ptr @_ZNSt3mapI14eStatementTypebSt4lessIS0_ESaISt4pairIKS0_bEEEixERS4_(ptr noundef nonnull align 8 dereferenceable(48) @_ZN15PartialExpander8expands_E, ptr noundef nonnull align 4 dereferenceable(4) %3)
  %14 = load i8, ptr %13, align 1, !tbaa !31, !range !17, !noundef !18
  %15 = trunc i8 %14 to i1
  %16 = zext i1 %15 to i8
  store i8 %16, ptr %5, align 1, !tbaa !31
  %17 = load i32, ptr %3, align 4, !tbaa !33
  %18 = icmp eq i32 %17, 0
  br i1 %18, label %19, label %29

19:                                               ; preds = %12
  %20 = load i8, ptr %5, align 1, !tbaa !31, !range !17, !noundef !18
  %21 = trunc i8 %20 to i1
  call void @llvm.lifetime.start.p0(i64 4, ptr %6) #3
  br i1 %21, label %26, label %22

22:                                               ; preds = %19
  store i32 4, ptr %6, align 4, !tbaa !33
  %23 = call noundef nonnull align 1 dereferenceable(1) ptr @_ZNSt3mapI14eStatementTypebSt4lessIS0_ESaISt4pairIKS0_bEEEixEOS0_(ptr noundef nonnull align 8 dereferenceable(48) @_ZN15PartialExpander8expands_E, ptr noundef nonnull align 4 dereferenceable(4) %6)
  %24 = load i8, ptr %23, align 1, !tbaa !31, !range !17, !noundef !18
  %25 = trunc i8 %24 to i1
  br label %26

26:                                               ; preds = %22, %19
  %27 = phi i1 [ true, %19 ], [ %25, %22 ]
  %28 = zext i1 %27 to i8
  store i8 %28, ptr %5, align 1, !tbaa !31
  call void @llvm.lifetime.end.p0(i64 4, ptr %6) #3
  br label %29

29:                                               ; preds = %26, %12
  %30 = load i8, ptr %5, align 1, !tbaa !31, !range !17, !noundef !18
  %31 = trunc i8 %30 to i1
  br i1 %31, label %32, label %33

32:                                               ; preds = %29
  call void @_ZN15PartialExpander15set_stmt_expandE14eStatementTypeb(i32 noundef 10, i1 noundef zeroext false)
  br label %33

33:                                               ; preds = %32, %29
  %34 = load i8, ptr %5, align 1, !tbaa !31, !range !17, !noundef !18
  %35 = trunc i8 %34 to i1
  store i1 %35, ptr %2, align 1
  call void @llvm.lifetime.end.p0(i64 1, ptr %5) #3
  br label %36

36:                                               ; preds = %33, %11
  %37 = load i1, ptr %2, align 1
  ret i1 %37
}