; Function Attrs: mustprogress uwtable
define dso_local noundef zeroext i1 @_ZN15PartialExpander12expand_checkE14eStatementType(i32 noundef %0) local_unnamed_addr #4 align 2 {
  %2 = alloca i32, align 4
  %3 = alloca i32, align 4
  %4 = alloca i32, align 4
  %5 = alloca i32, align 4
  store i32 %0, ptr %3, align 4, !tbaa !48
  call void @llvm.lifetime.start.p0(i64 4, ptr nonnull %4) #21
  store i32 10, ptr %4, align 4, !tbaa !48
  %6 = call noundef nonnull align 1 dereferenceable(1) ptr @_ZNSt3mapI14eStatementTypebSt4lessIS0_ESaISt4pairIKS0_bEEEixEOS0_(ptr noundef nonnull align 8 dereferenceable(48) @_ZN15PartialExpander8expands_E, ptr noundef nonnull align 4 dereferenceable(4) %4)
  %7 = load i8, ptr %6, align 1, !tbaa !49, !range !19, !noundef !20
  %8 = trunc nuw i8 %7 to i1
  call void @llvm.lifetime.end.p0(i64 4, ptr nonnull %4) #21
  br i1 %8, label %9, label %25

9:                                                ; preds = %1
  %10 = call noundef nonnull align 1 dereferenceable(1) ptr @_ZNSt3mapI14eStatementTypebSt4lessIS0_ESaISt4pairIKS0_bEEEixERS4_(ptr noundef nonnull align 8 dereferenceable(48) @_ZN15PartialExpander8expands_E, ptr noundef nonnull align 4 dereferenceable(4) %3)
  %11 = load i8, ptr %10, align 1, !tbaa !49, !range !19, !noundef !20
  %12 = load i32, ptr %3, align 4, !tbaa !48
  %13 = icmp eq i32 %12, 0
  br i1 %13, label %14, label %21

14:                                               ; preds = %9
  %15 = trunc nuw i8 %11 to i1
  call void @llvm.lifetime.start.p0(i64 4, ptr nonnull %5) #21
  br i1 %15, label %19, label %16

16:                                               ; preds = %14
  store i32 4, ptr %5, align 4, !tbaa !48
  %17 = call noundef nonnull align 1 dereferenceable(1) ptr @_ZNSt3mapI14eStatementTypebSt4lessIS0_ESaISt4pairIKS0_bEEEixEOS0_(ptr noundef nonnull align 8 dereferenceable(48) @_ZN15PartialExpander8expands_E, ptr noundef nonnull align 4 dereferenceable(4) %5)
  %18 = load i8, ptr %17, align 1, !tbaa !49, !range !19, !noundef !20
  br label %19

19:                                               ; preds = %16, %14
  %20 = phi i8 [ 1, %14 ], [ %18, %16 ]
  call void @llvm.lifetime.end.p0(i64 4, ptr nonnull %5) #21
  br label %21

21:                                               ; preds = %19, %9
  %.0 = phi i8 [ %20, %19 ], [ %11, %9 ]
  %22 = trunc nuw i8 %.0 to i1
  br i1 %22, label %23, label %25

23:                                               ; preds = %21
  call void @llvm.lifetime.start.p0(i64 4, ptr nonnull %2)
  store i32 10, ptr %2, align 4, !tbaa !48
  %24 = call noundef nonnull align 1 dereferenceable(1) ptr @_ZNSt3mapI14eStatementTypebSt4lessIS0_ESaISt4pairIKS0_bEEEixERS4_(ptr noundef nonnull align 8 dereferenceable(48) @_ZN15PartialExpander8expands_E, ptr noundef nonnull align 4 dereferenceable(4) %2)
  store i8 0, ptr %24, align 1, !tbaa !49
  call void @llvm.lifetime.end.p0(i64 4, ptr nonnull %2)
  br label %25

25:                                               ; preds = %21, %23, %1
  %.03 = phi i1 [ true, %1 ], [ true, %23 ], [ false, %21 ]
  ret i1 %.03
}